; Function Attrs: mustprogress uwtable
define void @_ZN3gmx15MdrunnerBuilderC2ESt10unique_ptrINS_9MDModulesESt14default_deleteIS2_EENS_6compat8not_nullIPNS_17SimulationContextEEE(ptr noundef nonnull writeonly align 8 captures(none) dereferenceable(8) %0, ptr noundef captures(none) %1, ptr %2) unnamed_addr #10 align 2 personality ptr @__gxx_personality_v0 {
  %4 = alloca %"class.std::unique_ptr.18", align 8
  tail call void @llvm.experimental.noalias.scope.decl(metadata !1243)
  call void @llvm.lifetime.start.p0(i64 8, ptr nonnull %4)
  %5 = tail call noalias noundef nonnull dereferenceable(376) ptr @_Znwm(i64 noundef 376) #36, !noalias !1243
  %6 = load i64, ptr %1, align 8, !tbaa !17, !noalias !1243
  store i64 %6, ptr %4, align 8, !tbaa !17, !noalias !1243
  store ptr null, ptr %1, align 8, !tbaa !17, !noalias !1243
  invoke void @_ZN3gmx8Mdrunner21BuilderImplementationC1ESt10unique_ptrINS_9MDModulesESt14default_deleteIS3_EENS_6compat8not_nullIPNS_17SimulationContextEEE(ptr noundef nonnull align 8 dereferenceable(376) %5, ptr noundef nonnull %4, ptr %2)
          to label %7 unwind label %9, !noalias !1243

7:                                                ; preds = %3
  store ptr %5, ptr %0, align 8, !tbaa !1246, !alias.scope !1243
  %8 = load ptr, ptr %4, align 8, !tbaa !17, !noalias !1243
  %.not.i.i = icmp eq ptr %8, null
  br i1 %.not.i.i, label %_ZSt11make_uniqueIN3gmx8Mdrunner21BuilderImplementationEJSt10unique_ptrINS0_9MDModulesESt14default_deleteIS4_EERNS0_6compat8not_nullIPNS0_17SimulationContextEEEEENSt8__detail9_MakeUniqIT_E15__single_objectEDpOT0_.exit, label %_ZNKSt14default_deleteIN3gmx9MDModulesEEclEPS1_.exit.i.i

_ZNKSt14default_deleteIN3gmx9MDModulesEEclEPS1_.exit.i.i: ; preds = %7
  call void @_ZN3gmx9MDModulesD1Ev(ptr noundef nonnull align 8 dereferenceable(8) %8) #34, !noalias !1243
  call void @_ZdlPvm(ptr noundef nonnull %8, i64 noundef 8) #33, !noalias !1243
  br label %_ZSt11make_uniqueIN3gmx8Mdrunner21BuilderImplementationEJSt10unique_ptrINS0_9MDModulesESt14default_deleteIS4_EERNS0_6compat8not_nullIPNS0_17SimulationContextEEEEENSt8__detail9_MakeUniqIT_E15__single_objectEDpOT0_.exit

9:                                                ; preds = %3
  %10 = landingpad { ptr, i32 }
          cleanup
  call void @_ZNSt10unique_ptrIN3gmx9MDModulesESt14default_deleteIS1_EED2Ev(ptr noundef nonnull align 8 dereferenceable(8) %4) #34, !noalias !1243
  call void @_ZdlPvm(ptr noundef nonnull %5, i64 noundef 376) #33, !noalias !1243
  resume { ptr, i32 } %10

_ZSt11make_uniqueIN3gmx8Mdrunner21BuilderImplementationEJSt10unique_ptrINS0_9MDModulesESt14default_deleteIS4_EERNS0_6compat8not_nullIPNS0_17SimulationContextEEEEENSt8__detail9_MakeUniqIT_E15__single_objectEDpOT0_.exit: ; preds = %7, %_ZNKSt14default_deleteIN3gmx9MDModulesEEclEPS1_.exit.i.i
  call void @llvm.lifetime.end.p0(i64 8, ptr nonnull %4)
  ret void
}